target datalayout = "e-m:e-p270:32:32-p271:32:32-p272:64:64-i64:64-i128:128-f80:128-n8:16:32:64-S128"
target triple = "x86_64-unknown-linux-gnu"

; Function Attrs: mustprogress nounwind uwtable
define internal noundef signext i8 @_ZL9U_FAILURE10UErrorCode(i32 noundef %code) #0 {
entry:
  %code.addr = alloca i32, align 4
  store i32 %code, ptr %code.addr, align 4
  %0 = load i32, ptr %code.addr, align 4
  %cmp = icmp sgt i32 %0, 0
  %conv = zext i1 %cmp to i8
  ret i8 %conv
}

; Function Attrs: mustprogress uwtable
define i32 @ucal_getFieldDifference_75(ptr noundef %cal, double noundef %target, i32 noundef %field, ptr noundef %status) #1 {
entry:
  %retval = alloca i32, align 4
  %cal.addr = alloca ptr, align 8
  %target.addr = alloca double, align 8
  %field.addr = alloca i32, align 4
  %status.addr = alloca ptr, align 8
  store ptr %cal, ptr %cal.addr, align 8
  store double %target, ptr %target.addr, align 8
  store i32 %field, ptr %field.addr, align 4
  store ptr %status, ptr %status.addr, align 8
  %0 = load ptr, ptr %status.addr, align 8
  %1 = load i32, ptr %0, align 4
  %call = call noundef signext i8 @_ZL9U_FAILURE10UErrorCode(i32 noundef %1)
  %tobool = icmp ne i8 %call, 0
  br i1 %tobool, label %if.then, label %if.end

if.then:                                          ; preds = %entry
  store i32 0, ptr %retval, align 4
  br label %return

if.end:                                           ; preds = %entry
  %2 = load ptr, ptr %cal.addr, align 8
  %3 = load double, ptr %target.addr, align 8
  %4 = load i32, ptr %field.addr, align 4
  %5 = load ptr, ptr %status.addr, align 8
  %vtable = load ptr, ptr %2, align 8
  %vfn = getelementptr inbounds ptr, ptr %vtable, i64 11
  %6 = load ptr, ptr %vfn, align 8
  %call1 = call noundef i32 %6(ptr noundef nonnull align 8 dereferenceable(618) %2, double noundef %3, i32 noundef %4, ptr noundef nonnull align 4 dereferenceable(4) %5)
  store i32 %call1, ptr %retval, align 4
  br label %return

return:                                           ; preds = %if.end, %if.then
  %7 = load i32, ptr %retval, align 4
  ret i32 %7
}